; Function Attrs: mustprogress uwtable
define noundef zeroext i1 @_ZN7rocksdb4port15GenerateRfcUuidEPNSt7__cxx1112basic_stringIcSt11char_traitsIcESaIcEEE(ptr noundef initializes((8, 16)) %0) local_unnamed_addr #0 personality ptr @__gxx_personality_v0 {
  %2 = alloca %"class.std::basic_ifstream", align 8
  %3 = getelementptr inbounds nuw i8, ptr %0, i64 8
  store i64 0, ptr %3, align 8, !tbaa !24
  %4 = load ptr, ptr %0, align 8, !tbaa !9
  store i8 0, ptr %4, align 1, !tbaa !25
  call void @llvm.lifetime.start.p0(i64 520, ptr nonnull %2) #17
  call void @_ZNSt14basic_ifstreamIcSt11char_traitsIcEEC1EPKcSt13_Ios_Openmode(ptr noundef nonnull align 8 dereferenceable(256) %2, ptr noundef nonnull @.str.20, i32 noundef 8)
  %5 = load ptr, ptr %2, align 8, !tbaa !26
  %6 = getelementptr i8, ptr %5, i64 -24
  %7 = load i64, ptr %6, align 8
  %8 = getelementptr inbounds i8, ptr %2, i64 %7
  %9 = getelementptr inbounds nuw i8, ptr %8, i64 240
  %10 = load ptr, ptr %9, align 8, !tbaa !28
  %.not.i.i.i = icmp eq ptr %10, null
  br i1 %.not.i.i.i, label %11, label %_ZSt13__check_facetISt5ctypeIcEERKT_PS3_.exit.i.i

11:                                               ; preds = %1
  invoke void @_ZSt16__throw_bad_castv() #21
          to label %.noexc unwind label %25

.noexc:                                           ; preds = %11
  unreachable

_ZSt13__check_facetISt5ctypeIcEERKT_PS3_.exit.i.i: ; preds = %1
  %12 = getelementptr inbounds nuw i8, ptr %10, i64 56
  %13 = load i8, ptr %12, align 8, !tbaa !44
  %.not.i1.i.i = icmp eq i8 %13, 0
  br i1 %.not.i1.i.i, label %17, label %14

14:                                               ; preds = %_ZSt13__check_facetISt5ctypeIcEERKT_PS3_.exit.i.i
  %15 = getelementptr inbounds nuw i8, ptr %10, i64 67
  %16 = load i8, ptr %15, align 1, !tbaa !25
  br label %_ZNKSt9basic_iosIcSt11char_traitsIcEE5widenEc.exit.i

17:                                               ; preds = %_ZSt13__check_facetISt5ctypeIcEERKT_PS3_.exit.i.i
  invoke void @_ZNKSt5ctypeIcE13_M_widen_initEv(ptr noundef nonnull align 8 dereferenceable(570) %10)
          to label %.noexc6 unwind label %25

.noexc6:                                          ; preds = %17
  %18 = load ptr, ptr %10, align 8, !tbaa !26
  %19 = getelementptr inbounds nuw i8, ptr %18, i64 48
  %20 = load ptr, ptr %19, align 8
  %21 = invoke noundef signext i8 %20(ptr noundef nonnull align 8 dereferenceable(570) %10, i8 noundef signext 10)
          to label %_ZNKSt9basic_iosIcSt11char_traitsIcEE5widenEc.exit.i unwind label %25

_ZNKSt9basic_iosIcSt11char_traitsIcEE5widenEc.exit.i: ; preds = %.noexc6, %14
  %.0.i.i.i = phi i8 [ %16, %14 ], [ %21, %.noexc6 ]
  %22 = invoke noundef nonnull align 8 dereferenceable(16) ptr @_ZSt7getlineIcSt11char_traitsIcESaIcEERSt13basic_istreamIT_T0_ES7_RNSt7__cxx1112basic_stringIS4_S5_T1_EES4_(ptr noundef nonnull align 8 dereferenceable(16) %2, ptr noundef nonnull align 8 dereferenceable(32) %0, i8 noundef signext %.0.i.i.i)
          to label %_ZSt7getlineIcSt11char_traitsIcESaIcEERSt13basic_istreamIT_T0_ES7_RNSt7__cxx1112basic_stringIS4_S5_T1_EE.exit unwind label %25

_ZSt7getlineIcSt11char_traitsIcESaIcEERSt13basic_istreamIT_T0_ES7_RNSt7__cxx1112basic_stringIS4_S5_T1_EE.exit: ; preds = %_ZNKSt9basic_iosIcSt11char_traitsIcEE5widenEc.exit.i
  %23 = load i64, ptr %3, align 8, !tbaa !24
  %24 = icmp eq i64 %23, 36
  br i1 %24, label %29, label %27

25:                                               ; preds = %_ZNKSt9basic_iosIcSt11char_traitsIcEE5widenEc.exit.i, %.noexc6, %17, %11
  %26 = landingpad { ptr, i32 }
          cleanup
  call void @_ZNSt14basic_ifstreamIcSt11char_traitsIcEED1Ev(ptr noundef nonnull align 8 dereferenceable(256) %2) #17
  call void @llvm.lifetime.end.p0(i64 520, ptr nonnull %2) #17
  resume { ptr, i32 } %26

27:                                               ; preds = %_ZSt7getlineIcSt11char_traitsIcESaIcEERSt13basic_istreamIT_T0_ES7_RNSt7__cxx1112basic_stringIS4_S5_T1_EE.exit
  store i64 0, ptr %3, align 8, !tbaa !24
  %28 = load ptr, ptr %0, align 8, !tbaa !9
  store i8 0, ptr %28, align 1, !tbaa !25
  br label %29

29:                                               ; preds = %_ZSt7getlineIcSt11char_traitsIcESaIcEERSt13basic_istreamIT_T0_ES7_RNSt7__cxx1112basic_stringIS4_S5_T1_EE.exit, %27
  call void @_ZNSt14basic_ifstreamIcSt11char_traitsIcEED1Ev(ptr noundef nonnull align 8 dereferenceable(256) %2) #17
  call void @llvm.lifetime.end.p0(i64 520, ptr nonnull %2) #17
  ret i1 %24
}